; Function Attrs: mustprogress uwtable
define void @_ZN5boost10test_tools18output_test_stream8is_emptyEb(ptr dead_on_unwind noalias writable sret(%"class.boost::test_tools::assertion_result") align 8 %0, ptr noundef nonnull align 8 dereferenceable(120) %1, i1 noundef zeroext %2) unnamed_addr #3 align 2 personality ptr @__gxx_personality_v0 {
  %4 = load ptr, ptr %1, align 8, !tbaa !3
  %5 = getelementptr inbounds i8, ptr %4, i64 56
  %6 = load ptr, ptr %5, align 8
  tail call void %6(ptr noundef nonnull align 8 dereferenceable(120) %1)
  %7 = getelementptr inbounds nuw i8, ptr %1, i64 112
  %8 = load ptr, ptr %7, align 8, !tbaa !130
  %9 = getelementptr inbounds nuw i8, ptr %8, i64 544
  %10 = load i64, ptr %9, align 8, !tbaa !22
  %11 = icmp eq i64 %10, 0
  %12 = zext i1 %11 to i8
  store i8 %12, ptr %0, align 8, !tbaa !23
  %13 = getelementptr inbounds nuw i8, ptr %0, i64 8
  tail call void @llvm.memset.p0.i64(ptr noundef nonnull align 8 dereferenceable(16) %13, i8 0, i64 16, i1 false)
  invoke void @_ZN5boost10test_tools18output_test_stream4Impl14check_and_fillERNS0_16assertion_resultE(ptr noundef nonnull align 8 dereferenceable(568) %8, ptr noundef nonnull align 8 dereferenceable(24) %0)
          to label %14 unwind label %16

14:                                               ; preds = %3
  br i1 %2, label %15, label %18

15:                                               ; preds = %14
  invoke void @_ZN5boost10test_tools18output_test_stream5flushEv(ptr noundef nonnull align 8 dereferenceable(120) %1)
          to label %18 unwind label %16

16:                                               ; preds = %15, %3
  %17 = landingpad { ptr, i32 }
          cleanup
  tail call void @_ZN5boost10test_tools16assertion_resultD2Ev(ptr noundef nonnull align 8 dereferenceable(24) %0) #30
  resume { ptr, i32 } %17

18:                                               ; preds = %14, %15
  ret void
}